; Function Attrs: mustprogress uwtable
define void @_ZNK6google8protobuf10TextFormat17FieldValuePrinter10PrintInt64B5cxx11El(ptr noalias sret(%"class.std::__cxx11::basic_string") align 8 %agg.result, ptr nocapture noundef nonnull readnone align 8 dereferenceable(16) %this, i64 noundef %val) unnamed_addr #4 align 2 personality ptr @__gxx_personality_v0 {
entry:
  %generator = alloca %"class.google::protobuf::(anonymous namespace)::StringBaseTextGenerator", align 8
  store ptr getelementptr inbounds ({ [10 x ptr] }, ptr @_ZTVN6google8protobuf12_GLOBAL__N_123StringBaseTextGeneratorE, i64 0, i32 0, i64 2), ptr %generator, align 8
  %output_.i = getelementptr inbounds i8, ptr %generator, i64 8
  call void @_ZNSt7__cxx1112basic_stringIcSt11char_traitsIcESaIcEEC1Ev(ptr noundef nonnull align 8 dereferenceable(32) %output_.i) #34
  invoke void @_ZNK6google8protobuf10TextFormat21FastFieldValuePrinter10PrintInt64ElPNS1_17BaseTextGeneratorE(ptr nonnull align 8 poison, i64 noundef %val, ptr noundef nonnull %generator)
          to label %invoke.cont unwind label %lpad

invoke.cont:                                      ; preds = %entry
  call void @_ZNSt7__cxx1112basic_stringIcSt11char_traitsIcESaIcEEC1EOS4_(ptr noundef nonnull align 8 dereferenceable(32) %agg.result, ptr noundef nonnull align 8 dereferenceable(32) %output_.i) #34
  store ptr getelementptr inbounds ({ [10 x ptr] }, ptr @_ZTVN6google8protobuf12_GLOBAL__N_123StringBaseTextGeneratorE, i64 0, i32 0, i64 2), ptr %generator, align 8
  call void @_ZNSt7__cxx1112basic_stringIcSt11char_traitsIcESaIcEED1Ev(ptr noundef nonnull align 8 dereferenceable(32) %output_.i) #34
  ret void

lpad:                                             ; preds = %entry
  %0 = landingpad { ptr, i32 }
          cleanup
  store ptr getelementptr inbounds ({ [10 x ptr] }, ptr @_ZTVN6google8protobuf12_GLOBAL__N_123StringBaseTextGeneratorE, i64 0, i32 0, i64 2), ptr %generator, align 8
  call void @_ZNSt7__cxx1112basic_stringIcSt11char_traitsIcESaIcEED1Ev(ptr noundef nonnull align 8 dereferenceable(32) %output_.i) #34
  resume { ptr, i32 } %0
}